; Function Attrs: nounwind uwtable
define i32 @wolfSSL_UseSupportedCurve(ptr noundef %0, i16 noundef zeroext %1) local_unnamed_addr #0 {
  %3 = icmp eq ptr %0, null
  br i1 %3, label %14, label %4

4:                                                ; preds = %2
  %5 = tail call fastcc i32 @isValidCurveGroup(i16 noundef zeroext %1)
  %.not = icmp eq i32 %5, 0
  br i1 %.not, label %14, label %6

6:                                                ; preds = %4
  %7 = getelementptr inbounds nuw i8, ptr %0, i64 1024
  %8 = load i64, ptr %7, align 8
  %9 = or i64 %8, 17592186044416
  store i64 %9, ptr %7, align 8
  %10 = getelementptr inbounds nuw i8, ptr %0, i64 1224
  %11 = getelementptr inbounds nuw i8, ptr %0, i64 176
  %12 = load ptr, ptr %11, align 16, !tbaa !164
  %13 = tail call i32 @TLSX_UseSupportedCurve(ptr noundef nonnull %10, i16 noundef zeroext %1, ptr noundef %12) #22
  br label %14

14:                                               ; preds = %2, %4, %6
  %.0 = phi i32 [ %13, %6 ], [ -173, %4 ], [ -173, %2 ]
  ret i32 %.0
}